target datalayout = "e-m:e-p270:32:32-p271:32:32-p272:64:64-i64:64-f80:128-n8:16:32:64-S128"
target triple = "x86_64-pc-linux-gnu"

%struct.aaa = type { [105 x i8], [105 x i8] }

@.str = private unnamed_addr constant [4 x i8] c"%d\0A\00", align 1
@.str.1 = private unnamed_addr constant [7 x i8] c"%s\0A%s\0A\00", align 1

; Function Attrs: noinline nounwind uwtable
define dso_local i32 @right(i8* %0, i32 %1, i32 %2) #0 {
  %4 = alloca i8*, align 8
  %5 = alloca i32, align 4
  %6 = alloca i32, align 4
  %7 = alloca i32, align 4
  %8 = alloca i32, align 4
  %9 = alloca i32, align 4
  %10 = alloca i32, align 4
  store i8* %0, i8** %4, align 8
  store i32 %1, i32* %5, align 4
  store i32 %2, i32* %6, align 4
  store i32 0, i32* %8, align 4
  store i32 0, i32* %9, align 4
  store i32 0, i32* %10, align 4
  %11 = load i32, i32* %5, align 4
  %12 = add nsw i32 %11, 1
  store i32 %12, i32* %7, align 4
  br label %13

13:                                               ; preds = %45, %3
  %14 = load i32, i32* %7, align 4
  %15 = load i32, i32* %6, align 4
  %16 = icmp slt i32 %14, %15
  br i1 %16, label %17, label %48

17:                                               ; preds = %13
  %18 = load i8*, i8** %4, align 8
  %19 = load i32, i32* %7, align 4
  %20 = sext i32 %19 to i64
  %21 = getelementptr inbounds i8, i8* %18, i64 %20
  %22 = load i8, i8* %21, align 1
  %23 = sext i8 %22 to i32
  %24 = icmp eq i32 %23, 40
  br i1 %24, label %25, label %28

25:                                               ; preds = %17
  %26 = load i32, i32* %9, align 4
  %27 = add nsw i32 %26, 1
  store i32 %27, i32* %9, align 4
  br label %28

28:                                               ; preds = %25, %17
  %29 = load i8*, i8** %4, align 8
  %30 = load i32, i32* %7, align 4
  %31 = sext i32 %30 to i64
  %32 = getelementptr inbounds i8, i8* %29, i64 %31
  %33 = load i8, i8* %32, align 1
  %34 = sext i8 %33 to i32
  %35 = icmp eq i32 %34, 41
  br i1 %35, label %36, label %39

36:                                               ; preds = %28
  %37 = load i32, i32* %8, align 4
  %38 = add nsw i32 %37, 1
  store i32 %38, i32* %8, align 4
  br label %39

39:                                               ; preds = %36, %28
  %40 = load i32, i32* %9, align 4
  %41 = load i32, i32* %8, align 4
  %42 = icmp slt i32 %40, %41
  br i1 %42, label %43, label %44

43:                                               ; preds = %39
  store i32 1, i32* %10, align 4
  br label %48

44:                                               ; preds = %39
  br label %45

45:                                               ; preds = %44
  %46 = load i32, i32* %7, align 4
  %47 = add nsw i32 %46, 1
  store i32 %47, i32* %7, align 4
  br label %13

48:                                               ; preds = %43, %13
  %49 = load i32, i32* %10, align 4
  ret i32 %49
}

; Function Attrs: noinline nounwind uwtable
define dso_local i32 @left(i8* %0, i32 %1) #0 {
  %3 = alloca i8*, align 8
  %4 = alloca i32, align 4
  %5 = alloca i32, align 4
  %6 = alloca i32, align 4
  %7 = alloca i32, align 4
  %8 = alloca i32, align 4
  store i8* %0, i8** %3, align 8
  store i32 %1, i32* %4, align 4
  store i32 0, i32* %6, align 4
  store i32 0, i32* %7, align 4
  store i32 0, i32* %8, align 4
  %9 = load i32, i32* %4, align 4
  %10 = sub nsw i32 %9, 1
  store i32 %10, i32* %5, align 4
  br label %11

11:                                               ; preds = %42, %2
  %12 = load i32, i32* %5, align 4
  %13 = icmp sge i32 %12, 0
  br i1 %13, label %14, label %45

14:                                               ; preds = %11
  %15 = load i8*, i8** %3, align 8
  %16 = load i32, i32* %5, align 4
  %17 = sext i32 %16 to i64
  %18 = getelementptr inbounds i8, i8* %15, i64 %17
  %19 = load i8, i8* %18, align 1
  %20 = sext i8 %19 to i32
  %21 = icmp eq i32 %20, 40
  br i1 %21, label %22, label %25

22:                                               ; preds = %14
  %23 = load i32, i32* %7, align 4
  %24 = add nsw i32 %23, 1
  store i32 %24, i32* %7, align 4
  br label %25

25:                                               ; preds = %22, %14
  %26 = load i8*, i8** %3, align 8
  %27 = load i32, i32* %5, align 4
  %28 = sext i32 %27 to i64
  %29 = getelementptr inbounds i8, i8* %26, i64 %28
  %30 = load i8, i8* %29, align 1
  %31 = sext i8 %30 to i32
  %32 = icmp eq i32 %31, 41
  br i1 %32, label %33, label %36

33:                                               ; preds = %25
  %34 = load i32, i32* %6, align 4
  %35 = add nsw i32 %34, 1
  store i32 %35, i32* %6, align 4
  br label %36

36:                                               ; preds = %33, %25
  %37 = load i32, i32* %7, align 4
  %38 = load i32, i32* %6, align 4
  %39 = icmp sgt i32 %37, %38
  br i1 %39, label %40, label %41

40:                                               ; preds = %36
  store i32 1, i32* %8, align 4
  br label %45

41:                                               ; preds = %36
  br label %42

42:                                               ; preds = %41
  %43 = load i32, i32* %5, align 4
  %44 = add nsw i32 %43, -1
  store i32 %44, i32* %5, align 4
  br label %11

45:                                               ; preds = %40, %11
  %46 = load i32, i32* %8, align 4
  ret i32 %46
}

; Function Attrs: noinline nounwind uwtable
define dso_local void @trans(i8* %0, i8* %1) #0 {
  %3 = alloca i8*, align 8
  %4 = alloca i8*, align 8
  %5 = alloca i32, align 4
  %6 = alloca i32, align 4
  store i8* %0, i8** %3, align 8
  store i8* %1, i8** %4, align 8
  %7 = load i8*, i8** %3, align 8
  %8 = call i64 @strlen(i8* %7) #3
  %9 = trunc i64 %8 to i32
  store i32 %9, i32* %5, align 4
  store i32 0, i32* %6, align 4
  br label %10

10:                                               ; preds = %85, %2
  %11 = load i32, i32* %6, align 4
  %12 = load i32, i32* %5, align 4
  %13 = icmp slt i32 %11, %12
  br i1 %13, label %14, label %88

14:                                               ; preds = %10
  %15 = load i8*, i8** %3, align 8
  %16 = load i32, i32* %6, align 4
  %17 = sext i32 %16 to i64
  %18 = getelementptr inbounds i8, i8* %15, i64 %17
  %19 = load i8, i8* %18, align 1
  %20 = sext i8 %19 to i32
  %21 = icmp ne i32 %20, 41
  br i1 %21, label %22, label %35

22:                                               ; preds = %14
  %23 = load i8*, i8** %3, align 8
  %24 = load i32, i32* %6, align 4
  %25 = sext i32 %24 to i64
  %26 = getelementptr inbounds i8, i8* %23, i64 %25
  %27 = load i8, i8* %26, align 1
  %28 = sext i8 %27 to i32
  %29 = icmp ne i32 %28, 40
  br i1 %29, label %30, label %35

30:                                               ; preds = %22
  %31 = load i8*, i8** %4, align 8
  %32 = load i32, i32* %6, align 4
  %33 = sext i32 %32 to i64
  %34 = getelementptr inbounds i8, i8* %31, i64 %33
  store i8 32, i8* %34, align 1
  br label %35

35:                                               ; preds = %30, %22, %14
  %36 = load i8*, i8** %3, align 8
  %37 = load i32, i32* %6, align 4
  %38 = sext i32 %37 to i64
  %39 = getelementptr inbounds i8, i8* %36, i64 %38
  %40 = load i8, i8* %39, align 1
  %41 = sext i8 %40 to i32
  %42 = icmp eq i32 %41, 41
  br i1 %42, label %43, label %59

43:                                               ; preds = %35
  %44 = load i8*, i8** %3, align 8
  %45 = load i32, i32* %6, align 4
  %46 = call i32 @left(i8* %44, i32 %45)
  %47 = icmp eq i32 %46, 1
  br i1 %47, label %48, label %53

48:                                               ; preds = %43
  %49 = load i8*, i8** %4, align 8
  %50 = load i32, i32* %6, align 4
  %51 = sext i32 %50 to i64
  %52 = getelementptr inbounds i8, i8* %49, i64 %51
  store i8 32, i8* %52, align 1
  br label %58

53:                                               ; preds = %43
  %54 = load i8*, i8** %4, align 8
  %55 = load i32, i32* %6, align 4
  %56 = sext i32 %55 to i64
  %57 = getelementptr inbounds i8, i8* %54, i64 %56
  store i8 63, i8* %57, align 1
  br label %58

58:                                               ; preds = %53, %48
  br label %59

59:                                               ; preds = %58, %35
  %60 = load i8*, i8** %3, align 8
  %61 = load i32, i32* %6, align 4
  %62 = sext i32 %61 to i64
  %63 = getelementptr inbounds i8, i8* %60, i64 %62
  %64 = load i8, i8* %63, align 1
  %65 = sext i8 %64 to i32
  %66 = icmp eq i32 %65, 40
  br i1 %66, label %67, label %84

67:                                               ; preds = %59
  %68 = load i8*, i8** %3, align 8
  %69 = load i32, i32* %6, align 4
  %70 = load i32, i32* %5, align 4
  %71 = call i32 @right(i8* %68, i32 %69, i32 %70)
  %72 = icmp eq i32 %71, 1
  br i1 %72, label %73, label %78

73:                                               ; preds = %67
  %74 = load i8*, i8** %4, align 8
  %75 = load i32, i32* %6, align 4
  %76 = sext i32 %75 to i64
  %77 = getelementptr inbounds i8, i8* %74, i64 %76
  store i8 32, i8* %77, align 1
  br label %83

78:                                               ; preds = %67
  %79 = load i8*, i8** %4, align 8
  %80 = load i32, i32* %6, align 4
  %81 = sext i32 %80 to i64
  %82 = getelementptr inbounds i8, i8* %79, i64 %81
  store i8 36, i8* %82, align 1
  br label %83

83:                                               ; preds = %78, %73
  br label %84

84:                                               ; preds = %83, %59
  br label %85

85:                                               ; preds = %84
  %86 = load i32, i32* %6, align 4
  %87 = add nsw i32 %86, 1
  store i32 %87, i32* %6, align 4
  br label %10

88:                                               ; preds = %10
  %89 = load i8*, i8** %4, align 8
  %90 = load i32, i32* %5, align 4
  %91 = sext i32 %90 to i64
  %92 = getelementptr inbounds i8, i8* %89, i64 %91
  store i8 0, i8* %92, align 1
  ret void
}

; Function Attrs: noinline nounwind uwtable
define dso_local i32 @main() #0 {
  %1 = alloca i32, align 4
  %2 = alloca i32, align 4
  %3 = alloca i32, align 4
  %4 = alloca i32, align 4
  %5 = alloca [20 x %struct.aaa], align 16
  store i32 0, i32* %1, align 4
  %6 = call i32 (i8*, ...) @__isoc99_scanf(i8* getelementptr inbounds ([4 x i8], [4 x i8]* @.str, i64 0, i64 0), i32* %4)
  store i32 0, i32* %2, align 4
  br label %7

7:                                                ; preds = %28, %0
  %8 = load i32, i32* %2, align 4
  %9 = load i32, i32* %4, align 4
  %10 = icmp slt i32 %8, %9
  br i1 %10, label %11, label %31

11:                                               ; preds = %7
  %12 = load i32, i32* %2, align 4
  %13 = sext i32 %12 to i64
  %14 = getelementptr inbounds [20 x %struct.aaa], [20 x %struct.aaa]* %5, i64 0, i64 %13
  %15 = getelementptr inbounds %struct.aaa, %struct.aaa* %14, i32 0, i32 0
  %16 = getelementptr inbounds [105 x i8], [105 x i8]* %15, i64 0, i64 0
  %17 = call i32 (i8*, ...) bitcast (i32 (...)* @gets to i32 (i8*, ...)*)(i8* %16)
  %18 = load i32, i32* %2, align 4
  %19 = sext i32 %18 to i64
  %20 = getelementptr inbounds [20 x %struct.aaa], [20 x %struct.aaa]* %5, i64 0, i64 %19
  %21 = getelementptr inbounds %struct.aaa, %struct.aaa* %20, i32 0, i32 0
  %22 = getelementptr inbounds [105 x i8], [105 x i8]* %21, i64 0, i64 0
  %23 = load i32, i32* %2, align 4
  %24 = sext i32 %23 to i64
  %25 = getelementptr inbounds [20 x %struct.aaa], [20 x %struct.aaa]* %5, i64 0, i64 %24
  %26 = getelementptr inbounds %struct.aaa, %struct.aaa* %25, i32 0, i32 1
  %27 = getelementptr inbounds [105 x i8], [105 x i8]* %26, i64 0, i64 0
  call void @trans(i8* %22, i8* %27)
  br label %28

28:                                               ; preds = %11
  %29 = load i32, i32* %2, align 4
  %30 = add nsw i32 %29, 1
  store i32 %30, i32* %2, align 4
  br label %7

31:                                               ; preds = %7
  store i32 0, i32* %2, align 4
  br label %32

32:                                               ; preds = %48, %31
  %33 = load i32, i32* %2, align 4
  %34 = load i32, i32* %4, align 4
  %35 = icmp slt i32 %33, %34
  br i1 %35, label %36, label %51

36:                                               ; preds = %32
  %37 = load i32, i32* %2, align 4
  %38 = sext i32 %37 to i64
  %39 = getelementptr inbounds [20 x %struct.aaa], [20 x %struct.aaa]* %5, i64 0, i64 %38
  %40 = getelementptr inbounds %struct.aaa, %struct.aaa* %39, i32 0, i32 0
  %41 = getelementptr inbounds [105 x i8], [105 x i8]* %40, i64 0, i64 0
  %42 = load i32, i32* %2, align 4
  %43 = sext i32 %42 to i64
  %44 = getelementptr inbounds [20 x %struct.aaa], [20 x %struct.aaa]* %5, i64 0, i64 %43
  %45 = getelementptr inbounds %struct.aaa, %struct.aaa* %44, i32 0, i32 1
  %46 = getelementptr inbounds [105 x i8], [105 x i8]* %45, i64 0, i64 0
  %47 = call i32 (i8*, ...) @printf(i8* getelementptr inbounds ([7 x i8], [7 x i8]* @.str.1, i64 0, i64 0), i8* %41, i8* %46)
  br label %48

48:                                               ; preds = %36
  %49 = load i32, i32* %2, align 4
  %50 = add nsw i32 %49, 1
  store i32 %50, i32* %2, align 4
  br label %32

51:                                               ; preds = %32
  %52 = load i32, i32* %1, align 4
  ret i32 %52
}